###############################################################################
#                                                                             #
# IAR ANSI C/C++ Compiler V5.30.0.51174/W32 for ARM     28/May/2011  10:37:11 #
# Copyright 1999-2009 IAR Systems AB.                                         #
#                                                                             #
#    Cpu mode     =  thumb                                                    #
#    Endian       =  little                                                   #
#    Source file  =  C:\Documents and Settings\253642xvvn\桌面\nrf905se\bigbo #
#                    ard\send6\library\src\stm32f10x_exti.c                   #
#    Command line =  "C:\Documents and Settings\253642xvvn\桌面\nrf905se\bigb #
#                    oard\send6\library\src\stm32f10x_exti.c" -lC             #
#                    "C:\Documents and Settings\253642xvvn\桌面\nrf905se\bigb #
#                    oard\send6\Debug\List\" -lb "C:\Documents and            #
#                    Settings\253642xvvn\桌面\nrf905se\bigboard\send6\Debug\L #
#                    ist\" -o "C:\Documents and Settings\253642xvvn\桌面\nrf9 #
#                    05se\bigboard\send6\Debug\Obj\" --no_cse --no_unroll     #
#                    --no_inline --no_code_motion --no_tbaa --no_clustering   #
#                    --no_scheduling --debug --endian=little --cpu=Cortex-M3  #
#                    -e --fpu=None --dlib_config "D:\Program Files\IAR        #
#                    Systems\Embedded Workbench 5.4\arm\INC\DLib_Config_Full. #
#                    h" -I "C:\Documents and Settings\253642xvvn\桌面\nrf905s #
#                    e\bigboard\send6\library\inc\" -I "C:\Documents and      #
#                    Settings\253642xvvn\桌面\nrf905se\bigboard\send6\board\" #
#                     -I "C:\Documents and Settings\253642xvvn\桌面\nrf905se\ #
#                    bigboard\send6\app\" -I "D:\Program Files\IAR            #
#                    Systems\Embedded Workbench 5.4\arm\INC\" -Ol             #
#    List file    =  C:\Documents and Settings\253642xvvn\桌面\nrf905se\bigbo #
#                    ard\send6\Debug\List\stm32f10x_exti.lst                  #
#    Object file  =  C:\Documents and Settings\253642xvvn\桌面\nrf905se\bigbo #
#                    ard\send6\Debug\Obj\stm32f10x_exti.o                     #
#                                                                             #
#                                                                             #
###############################################################################

C:\Documents and Settings\253642xvvn\桌面\nrf905se\bigboard\send6\library\src\stm32f10x_exti.c
      1          /******************** (C) COPYRIGHT 2008 STMicroelectronics ********************
      2          * File Name          : stm32f10x_exti.c
      3          * Author             : MCD Application Team
      4          * Version            : V2.0.1
      5          * Date               : 06/13/2008
      6          * Description        : This file provides all the EXTI firmware functions.
      7          ********************************************************************************
      8          * THE PRESENT FIRMWARE WHICH IS FOR GUIDANCE ONLY AIMS AT PROVIDING CUSTOMERS
      9          * WITH CODING INFORMATION REGARDING THEIR PRODUCTS IN ORDER FOR THEM TO SAVE TIME.
     10          * AS A RESULT, STMICROELECTRONICS SHALL NOT BE HELD LIABLE FOR ANY DIRECT,
     11          * INDIRECT OR CONSEQUENTIAL DAMAGES WITH RESPECT TO ANY CLAIMS ARISING FROM THE
     12          * CONTENT OF SUCH FIRMWARE AND/OR THE USE MADE BY CUSTOMERS OF THE CODING
     13          * INFORMATION CONTAINED HEREIN IN CONNECTION WITH THEIR PRODUCTS.
     14          *******************************************************************************/
     15          
     16          /* Includes ------------------------------------------------------------------*/
     17          #include "stm32f10x_exti.h"
     18          
     19          /* Private typedef -----------------------------------------------------------*/
     20          /* Private define ------------------------------------------------------------*/
     21          #define EXTI_LineNone    ((u32)0x00000)  /* No interrupt selected */
     22          
     23          /* Private macro -------------------------------------------------------------*/
     24          /* Private variables ---------------------------------------------------------*/
     25          /* Private function prototypes -----------------------------------------------*/
     26          /* Private functions ---------------------------------------------------------*/
     27          
     28          /*******************************************************************************
     29          * Function Name  : EXTI_DeInit
     30          * Description    : Deinitializes the EXTI peripheral registers to their default 
     31          *                  reset values.
     32          * Input          : None
     33          * Output         : None
     34          * Return         : None
     35          *******************************************************************************/

   \                                 In section .text, align 4, keep-with-next
     36          void EXTI_DeInit(void)
     37          {
     38            EXTI->IMR = 0x00000000;
   \                     EXTI_DeInit:
   \   00000000   ....               LDR.N    R0,??DataTable25  ;; 0x40010400
   \   00000002   0021               MOVS     R1,#+0
   \   00000004   0160               STR      R1,[R0, #+0]
     39            EXTI->EMR = 0x00000000;
   \   00000006   ....               LDR.N    R0,??DataTable8  ;; 0x40010404
   \   00000008   0021               MOVS     R1,#+0
   \   0000000A   0160               STR      R1,[R0, #+0]
     40            EXTI->RTSR = 0x00000000; 
   \   0000000C   ....               LDR.N    R0,??DataTable16  ;; 0x40010408
   \   0000000E   0021               MOVS     R1,#+0
   \   00000010   0160               STR      R1,[R0, #+0]
     41            EXTI->FTSR = 0x00000000; 
   \   00000012   ....               LDR.N    R0,??DataTable18  ;; 0x4001040c
   \   00000014   0021               MOVS     R1,#+0
   \   00000016   0160               STR      R1,[R0, #+0]
     42            EXTI->PR = 0x0007FFFF;
   \   00000018   ....               LDR.N    R0,??DataTable27  ;; 0x40010414
   \   0000001A   0149               LDR.N    R1,??EXTI_DeInit_0  ;; 0x7ffff
   \   0000001C   0160               STR      R1,[R0, #+0]
     43          }
   \   0000001E   7047               BX       LR               ;; return
   \                     ??EXTI_DeInit_0:
   \   00000020   FFFF0700           DC32     0x7ffff
     44          
     45          /*******************************************************************************
     46          * Function Name  : EXTI_Init
     47          * Description    : Initializes the EXTI peripheral according to the specified
     48          *                  parameters in the EXTI_InitStruct.
     49          * Input          : - EXTI_InitStruct: pointer to a EXTI_InitTypeDef structure
     50          *                    that contains the configuration information for the EXTI
     51          *                    peripheral.
     52          * Output         : None
     53          * Return         : None
     54          *******************************************************************************/

   \                                 In section .text, align 2, keep-with-next
     55          void EXTI_Init(EXTI_InitTypeDef* EXTI_InitStruct)
     56          {
     57            /* Check the parameters */
     58            assert_param(IS_EXTI_MODE(EXTI_InitStruct->EXTI_Mode));
     59            assert_param(IS_EXTI_TRIGGER(EXTI_InitStruct->EXTI_Trigger));
     60            assert_param(IS_EXTI_LINE(EXTI_InitStruct->EXTI_Line));  
     61            assert_param(IS_FUNCTIONAL_STATE(EXTI_InitStruct->EXTI_LineCmd));
     62               
     63            if (EXTI_InitStruct->EXTI_LineCmd != DISABLE)
   \                     EXTI_Init:
   \   00000000   8179               LDRB     R1,[R0, #+6]
   \   00000002   0029               CMP      R1,#+0
   \   00000004   3CD0               BEQ.N    ??EXTI_Init_0
     64            {
     65              /* Clear EXTI line configuration */
     66              EXTI->IMR &= ~EXTI_InitStruct->EXTI_Line;
   \   00000006   ....               LDR.N    R1,??DataTable25  ;; 0x40010400
   \   00000008   0968               LDR      R1,[R1, #+0]
   \   0000000A   0268               LDR      R2,[R0, #+0]
   \   0000000C   D243               MVNS     R2,R2
   \   0000000E   1140               ANDS     R1,R2,R1
   \   00000010   ....               LDR.N    R2,??DataTable25  ;; 0x40010400
   \   00000012   1160               STR      R1,[R2, #+0]
     67              EXTI->EMR &= ~EXTI_InitStruct->EXTI_Line;
   \   00000014   ....               LDR.N    R1,??DataTable8  ;; 0x40010404
   \   00000016   0968               LDR      R1,[R1, #+0]
   \   00000018   0268               LDR      R2,[R0, #+0]
   \   0000001A   D243               MVNS     R2,R2
   \   0000001C   1140               ANDS     R1,R2,R1
   \   0000001E   ....               LDR.N    R2,??DataTable8  ;; 0x40010404
   \   00000020   1160               STR      R1,[R2, #+0]
     68              
     69              *(vu32 *)(EXTI_BASE + (u32)EXTI_InitStruct->EXTI_Mode)|= EXTI_InitStruct->EXTI_Line;
   \   00000022   0179               LDRB     R1,[R0, #+4]
   \   00000024   ....               LDR.N    R2,??DataTable25  ;; 0x40010400
   \   00000026   5158               LDR      R1,[R2, R1]
   \   00000028   0268               LDR      R2,[R0, #+0]
   \   0000002A   1143               ORRS     R1,R2,R1
   \   0000002C   0279               LDRB     R2,[R0, #+4]
   \   0000002E   ....               LDR.N    R3,??DataTable25  ;; 0x40010400
   \   00000030   9950               STR      R1,[R3, R2]
     70          
     71              /* Clear Rising Falling edge configuration */
     72              EXTI->RTSR &= ~EXTI_InitStruct->EXTI_Line;
   \   00000032   ....               LDR.N    R1,??DataTable16  ;; 0x40010408
   \   00000034   0968               LDR      R1,[R1, #+0]
   \   00000036   0268               LDR      R2,[R0, #+0]
   \   00000038   D243               MVNS     R2,R2
   \   0000003A   1140               ANDS     R1,R2,R1
   \   0000003C   ....               LDR.N    R2,??DataTable16  ;; 0x40010408
   \   0000003E   1160               STR      R1,[R2, #+0]
     73              EXTI->FTSR &= ~EXTI_InitStruct->EXTI_Line;
   \   00000040   ....               LDR.N    R1,??DataTable18  ;; 0x4001040c
   \   00000042   0968               LDR      R1,[R1, #+0]
   \   00000044   0268               LDR      R2,[R0, #+0]
   \   00000046   D243               MVNS     R2,R2
   \   00000048   1140               ANDS     R1,R2,R1
   \   0000004A   ....               LDR.N    R2,??DataTable18  ;; 0x4001040c
   \   0000004C   1160               STR      R1,[R2, #+0]
     74              
     75              /* Select the trigger for the selected external interrupts */
     76              if (EXTI_InitStruct->EXTI_Trigger == EXTI_Trigger_Rising_Falling)
   \   0000004E   4179               LDRB     R1,[R0, #+5]
   \   00000050   1029               CMP      R1,#+16
   \   00000052   0CD1               BNE.N    ??EXTI_Init_1
     77              {
     78                /* Rising Falling edge */
     79                EXTI->RTSR |= EXTI_InitStruct->EXTI_Line;
   \   00000054   ....               LDR.N    R1,??DataTable16  ;; 0x40010408
   \   00000056   0968               LDR      R1,[R1, #+0]
   \   00000058   0268               LDR      R2,[R0, #+0]
   \   0000005A   1143               ORRS     R1,R2,R1
   \   0000005C   ....               LDR.N    R2,??DataTable16  ;; 0x40010408
   \   0000005E   1160               STR      R1,[R2, #+0]
     80                EXTI->FTSR |= EXTI_InitStruct->EXTI_Line;
   \   00000060   ....               LDR.N    R1,??DataTable18  ;; 0x4001040c
   \   00000062   0968               LDR      R1,[R1, #+0]
   \   00000064   0068               LDR      R0,[R0, #+0]
   \   00000066   0843               ORRS     R0,R0,R1
   \   00000068   ....               LDR.N    R1,??DataTable18  ;; 0x4001040c
   \   0000006A   0860               STR      R0,[R1, #+0]
   \   0000006C   07E0               B.N      ??EXTI_Init_2
     81              }
     82              else
     83              {
     84                *(vu32 *)(EXTI_BASE + (u32)EXTI_InitStruct->EXTI_Trigger)|= EXTI_InitStruct->EXTI_Line;
   \                     ??EXTI_Init_1:
   \   0000006E   4179               LDRB     R1,[R0, #+5]
   \   00000070   ....               LDR.N    R2,??DataTable25  ;; 0x40010400
   \   00000072   5158               LDR      R1,[R2, R1]
   \   00000074   0268               LDR      R2,[R0, #+0]
   \   00000076   1143               ORRS     R1,R2,R1
   \   00000078   4079               LDRB     R0,[R0, #+5]
   \   0000007A   ....               LDR.N    R2,??DataTable25  ;; 0x40010400
   \   0000007C   1150               STR      R1,[R2, R0]
   \                     ??EXTI_Init_2:
   \   0000007E   08E0               B.N      ??EXTI_Init_3
     85              }
     86            }
     87            else
     88            {
     89              /* Disable the selected external lines */
     90              *(vu32 *)(EXTI_BASE + (u32)EXTI_InitStruct->EXTI_Mode)&= ~EXTI_InitStruct->EXTI_Line;
   \                     ??EXTI_Init_0:
   \   00000080   0179               LDRB     R1,[R0, #+4]
   \   00000082   ....               LDR.N    R2,??DataTable25  ;; 0x40010400
   \   00000084   5158               LDR      R1,[R2, R1]
   \   00000086   0268               LDR      R2,[R0, #+0]
   \   00000088   D243               MVNS     R2,R2
   \   0000008A   1140               ANDS     R1,R2,R1
   \   0000008C   0079               LDRB     R0,[R0, #+4]
   \   0000008E   ....               LDR.N    R2,??DataTable25  ;; 0x40010400
   \   00000090   1150               STR      R1,[R2, R0]
     91            }
     92          }
   \                     ??EXTI_Init_3:
   \   00000092   7047               BX       LR               ;; return
     93          
     94          /*******************************************************************************
     95          * Function Name  : EXTI_StructInit
     96          * Description    : Fills each EXTI_InitStruct member with its reset value.
     97          * Input          : - EXTI_InitStruct: pointer to a EXTI_InitTypeDef structure
     98          *                    which will be initialized.
     99          * Output         : None
    100          * Return         : None
    101          *******************************************************************************/

   \                                 In section .text, align 2, keep-with-next
    102          void EXTI_StructInit(EXTI_InitTypeDef* EXTI_InitStruct)
    103          {
    104            EXTI_InitStruct->EXTI_Line = EXTI_LineNone;
   \                     EXTI_StructInit:
   \   00000000   0021               MOVS     R1,#+0
   \   00000002   0160               STR      R1,[R0, #+0]
    105            EXTI_InitStruct->EXTI_Mode = EXTI_Mode_Interrupt;
   \   00000004   0021               MOVS     R1,#+0
   \   00000006   0171               STRB     R1,[R0, #+4]
    106            EXTI_InitStruct->EXTI_Trigger = EXTI_Trigger_Falling;
   \   00000008   0C21               MOVS     R1,#+12
   \   0000000A   4171               STRB     R1,[R0, #+5]
    107            EXTI_InitStruct->EXTI_LineCmd = DISABLE;
   \   0000000C   0021               MOVS     R1,#+0
   \   0000000E   8171               STRB     R1,[R0, #+6]
    108          }
   \   00000010   7047               BX       LR               ;; return
    109          
    110          /*******************************************************************************
    111          * Function Name  : EXTI_GenerateSWInterrupt
    112          * Description    : Generates a Software interrupt.
    113          * Input          : - EXTI_Line: specifies the EXTI lines to be enabled or
    114          *                    disabled.
    115          *                    This parameter can be any combination of EXTI_Linex where 
    116          *                    x can be (0..18).
    117          * Output         : None
    118          * Return         : None
    119          *******************************************************************************/

   \                                 In section .text, align 4, keep-with-next
    120          void EXTI_GenerateSWInterrupt(u32 EXTI_Line)
    121          {
    122            /* Check the parameters */
    123            assert_param(IS_EXTI_LINE(EXTI_Line));
    124            
    125            EXTI->SWIER |= EXTI_Line;
   \                     EXTI_GenerateSWInterrupt:
   \   00000000   0249               LDR.N    R1,??EXTI_GenerateSWInterrupt_0  ;; 0x40010410
   \   00000002   0968               LDR      R1,[R1, #+0]
   \   00000004   0843               ORRS     R0,R0,R1
   \   00000006   0149               LDR.N    R1,??EXTI_GenerateSWInterrupt_0  ;; 0x40010410
   \   00000008   0860               STR      R0,[R1, #+0]
    126          }
   \   0000000A   7047               BX       LR               ;; return
   \                     ??EXTI_GenerateSWInterrupt_0:
   \   0000000C   10040140           DC32     0x40010410
    127          
    128          /*******************************************************************************
    129          * Function Name  : EXTI_GetFlagStatus
    130          * Description    : Checks whether the specified EXTI line flag is set or not.
    131          * Input          : - EXTI_Line: specifies the EXTI line flag to check.
    132          *                    This parameter can be:
    133          *                       - EXTI_Linex: External interrupt line x where x(0..18)
    134          * Output         : None
    135          * Return         : The new state of EXTI_Line (SET or RESET).
    136          *******************************************************************************/

   \                                 In section .text, align 2, keep-with-next
    137          FlagStatus EXTI_GetFlagStatus(u32 EXTI_Line)
    138          {
   \                     EXTI_GetFlagStatus:
   \   00000000   0100               MOVS     R1,R0
    139            FlagStatus bitstatus = RESET;
   \   00000002   0020               MOVS     R0,#+0
    140          
    141            /* Check the parameters */
    142            assert_param(IS_GET_EXTI_LINE(EXTI_Line));
    143            
    144            if ((EXTI->PR & EXTI_Line) != (u32)RESET)
   \   00000004   ....               LDR.N    R2,??DataTable27  ;; 0x40010414
   \   00000006   1268               LDR      R2,[R2, #+0]
   \   00000008   1140               ANDS     R1,R1,R2
   \   0000000A   491E               SUBS     R1,R1,#+1
   \   0000000C   8941               SBCS     R1,R1,R1
   \   0000000E   C943               MVNS     R1,R1
   \   00000010   C90F               LSRS     R1,R1,#+31
   \   00000012   0800               MOVS     R0,R1
    145            {
    146              bitstatus = SET;
    147            }
    148            else
    149            {
    150              bitstatus = RESET;
    151            }
    152            return bitstatus;
   \   00000014   C0B2               UXTB     R0,R0            ;; ZeroExt  R0,R0,#+24,#+24
   \   00000016   7047               BX       LR               ;; return
    153          }
    154          
    155          /*******************************************************************************
    156          * Function Name  : EXTI_ClearFlag
    157          * Description    : Clears the EXTIs line pending flags.
    158          * Input          : - EXTI_Line: specifies the EXTI lines flags to clear.
    159          *                    This parameter can be any combination of EXTI_Linex where 
    160          *                    x can be (0..18).
    161          * Output         : None
    162          * Return         : None
    163          *******************************************************************************/

   \                                 In section .text, align 2, keep-with-next
    164          void EXTI_ClearFlag(u32 EXTI_Line)
    165          {
    166            /* Check the parameters */
    167            assert_param(IS_EXTI_LINE(EXTI_Line));
    168            
    169            EXTI->PR = EXTI_Line;
   \                     EXTI_ClearFlag:
   \   00000000   ....               LDR.N    R1,??DataTable27  ;; 0x40010414
   \   00000002   0860               STR      R0,[R1, #+0]
    170          }
   \   00000004   7047               BX       LR               ;; return
    171          
    172          /*******************************************************************************
    173          * Function Name  : EXTI_GetITStatus
    174          * Description    : Checks whether the specified EXTI line is asserted or not.
    175          * Input          : - EXTI_Line: specifies the EXTI line to check.
    176          *                    This parameter can be:
    177          *                       - EXTI_Linex: External interrupt line x where x(0..18)
    178          * Output         : None
    179          * Return         : The new state of EXTI_Line (SET or RESET).
    180          *******************************************************************************/

   \                                 In section .text, align 2, keep-with-next
    181          ITStatus EXTI_GetITStatus(u32 EXTI_Line)
    182          {
   \                     EXTI_GetITStatus:
   \   00000000   0100               MOVS     R1,R0
    183            ITStatus bitstatus = RESET;
   \   00000002   0020               MOVS     R0,#+0
    184            u32 enablestatus = 0;
   \   00000004   0022               MOVS     R2,#+0
    185          
    186            /* Check the parameters */
    187            assert_param(IS_GET_EXTI_LINE(EXTI_Line));
    188            
    189            enablestatus =  EXTI->IMR & EXTI_Line;
   \   00000006   ....               LDR.N    R3,??DataTable25  ;; 0x40010400
   \   00000008   1B68               LDR      R3,[R3, #+0]
   \   0000000A   0B40               ANDS     R3,R1,R3
   \   0000000C   1A00               MOVS     R2,R3
    190          
    191            if (((EXTI->PR & EXTI_Line) != (u32)RESET) && (enablestatus != (u32)RESET))
   \   0000000E   ....               LDR.N    R3,??DataTable27  ;; 0x40010414
   \   00000010   1B68               LDR      R3,[R3, #+0]
   \   00000012   1942               TST      R1,R3
   \   00000014   05D0               BEQ.N    ??EXTI_GetITStatus_0
   \   00000016   1000               MOVS     R0,R2
   \   00000018   401E               SUBS     R0,R0,#+1
   \   0000001A   8041               SBCS     R0,R0,R0
   \   0000001C   C043               MVNS     R0,R0
   \   0000001E   C00F               LSRS     R0,R0,#+31
   \   00000020   00E0               B.N      ??EXTI_GetITStatus_1
    192            {
    193              bitstatus = SET;
    194            }
    195            else
    196            {
    197              bitstatus = RESET;
   \                     ??EXTI_GetITStatus_0:
   \   00000022   0020               MOVS     R0,#+0
    198            }
    199            return bitstatus;
   \                     ??EXTI_GetITStatus_1:
   \   00000024   C0B2               UXTB     R0,R0            ;; ZeroExt  R0,R0,#+24,#+24
   \   00000026   7047               BX       LR               ;; return
    200          }
    201          
    202          /*******************************************************************************
    203          * Function Name  : EXTI_ClearITPendingBit
    204          * Description    : Clears the EXTIs line pending bits.
    205          * Input          : - EXTI_Line: specifies the EXTI lines to clear.
    206          *                    This parameter can be any combination of EXTI_Linex where 
    207          *                    x can be (0..18).
    208          * Output         : None
    209          * Return         : None
    210          *******************************************************************************/

   \                                 In section .text, align 2, keep-with-next
    211          void EXTI_ClearITPendingBit(u32 EXTI_Line)
    212          {
    213            /* Check the parameters */
    214            assert_param(IS_EXTI_LINE(EXTI_Line));
    215            
    216            EXTI->PR = EXTI_Line;
   \                     EXTI_ClearITPendingBit:
   \   00000000   ....               LDR.N    R1,??DataTable27  ;; 0x40010414
   \   00000002   0860               STR      R0,[R1, #+0]
    217          }
   \   00000004   7047               BX       LR               ;; return

   \                                 In section .text, align 4, keep-with-next
   \                     ??DataTable8:
   \   00000000   04040140           DC32     0x40010404

   \                                 In section .text, align 4, keep-with-next
   \                     ??DataTable16:
   \   00000000   08040140           DC32     0x40010408

   \                                 In section .text, align 4, keep-with-next
   \                     ??DataTable18:
   \   00000000   0C040140           DC32     0x4001040c

   \                                 In section .text, align 4, keep-with-next
   \                     ??DataTable25:
   \   00000000   00040140           DC32     0x40010400

   \                                 In section .text, align 4, keep-with-next
   \                     ??DataTable27:
   \   00000000   14040140           DC32     0x40010414
    218          
    219          /******************* (C) COPYRIGHT 2008 STMicroelectronics *****END OF FILE****/

   Maximum stack usage in bytes:

     Function                 .cstack
     --------                 -------
     EXTI_ClearFlag                0
     EXTI_ClearITPendingBit        0
     EXTI_DeInit                   0
     EXTI_GenerateSWInterrupt      0
     EXTI_GetFlagStatus            0
     EXTI_GetITStatus              0
     EXTI_Init                     0
     EXTI_StructInit               0


   Section sizes:

     Function/Label           Bytes
     --------------           -----
     EXTI_DeInit                36
     EXTI_Init                 148
     EXTI_StructInit            18
     EXTI_GenerateSWInterrupt   16
     EXTI_GetFlagStatus         24
     EXTI_ClearFlag              6
     EXTI_GetITStatus           40
     EXTI_ClearITPendingBit      6
     ??DataTable8                4
     ??DataTable16               4
     ??DataTable18               4
     ??DataTable25               4
     ??DataTable27               4

 
 314 bytes in section .text
 
 314 bytes of CODE memory

Errors: none
Warnings: none
